; Function Attrs: mustprogress uwtable
define hidden void @_ZN2cv10PxMDecoderC2Ev(ptr noundef nonnull align 8 dereferenceable(1472) %0) unnamed_addr #3 align 2 personality ptr @__gxx_personality_v0 {
  tail call void @_ZN2cv16BaseImageDecoderC2Ev(ptr noundef nonnull align 8 dereferenceable(368) %0)
  store ptr getelementptr inbounds nuw inrange(-16, 104) (i8, ptr @_ZTVN2cv10PxMDecoderE, i64 16), ptr %0, align 8, !tbaa !3
  %2 = getelementptr inbounds nuw i8, ptr %0, i64 368
  invoke void @_ZN2cv11RBaseStreamC2Ev(ptr noundef nonnull align 8 dereferenceable(57) %2)
          to label %3 unwind label %9

3:                                                ; preds = %1
  store ptr getelementptr inbounds nuw inrange(-16, 64) (i8, ptr @_ZTVN2cv12RLByteStreamE, i64 16), ptr %2, align 8, !tbaa !3
  %4 = getelementptr inbounds nuw i8, ptr %0, i64 1460
  store i32 -1, ptr %4, align 4, !tbaa !6
  %5 = getelementptr inbounds nuw i8, ptr %0, i64 184
  store i8 1, ptr %5, align 8, !tbaa !55
  %6 = getelementptr inbounds nuw i8, ptr %0, i64 1456
  store i32 0, ptr %6, align 8, !tbaa !56
  %7 = getelementptr inbounds nuw i8, ptr %0, i64 1464
  store i8 0, ptr %7, align 8, !tbaa !57
  %8 = getelementptr inbounds nuw i8, ptr %0, i64 1468
  store i32 0, ptr %8, align 4, !tbaa !58
  ret void

9:                                                ; preds = %1
  %10 = landingpad { ptr, i32 }
          cleanup
  tail call void @_ZN2cv16BaseImageDecoderD2Ev(ptr noundef nonnull align 8 dereferenceable(368) %0) #25
  resume { ptr, i32 } %10
}